; Function Attrs: nounwind uwtable
define dso_local void @ExecShutdownGatherMerge(ptr noundef captures(none) %0) local_unnamed_addr #0 {
  %2 = getelementptr inbounds nuw i8, ptr %0, i64 240
  %3 = load ptr, ptr %2, align 8
  %.not.i = icmp eq ptr %3, null
  br i1 %.not.i, label %5, label %4

4:                                                ; preds = %1
  tail call void @ExecParallelFinish(ptr noundef nonnull %3) #4
  br label %5

5:                                                ; preds = %4, %1
  %6 = getelementptr inbounds nuw i8, ptr %0, i64 264
  %7 = load ptr, ptr %6, align 8
  %.not6.i = icmp eq ptr %7, null
  br i1 %.not6.i, label %ExecShutdownGatherMergeWorkers.exit, label %8

8:                                                ; preds = %5
  tail call void @pfree(ptr noundef nonnull %7) #4
  br label %ExecShutdownGatherMergeWorkers.exit

ExecShutdownGatherMergeWorkers.exit:              ; preds = %5, %8
  store ptr null, ptr %6, align 8
  %9 = load ptr, ptr %2, align 8
  %.not = icmp eq ptr %9, null
  br i1 %.not, label %11, label %10

10:                                               ; preds = %ExecShutdownGatherMergeWorkers.exit
  tail call void @ExecParallelCleanup(ptr noundef nonnull %9) #4
  store ptr null, ptr %2, align 8
  br label %11

11:                                               ; preds = %10, %ExecShutdownGatherMergeWorkers.exit
  ret void
}